; Function Attrs: mustprogress nofree norecurse nosync nounwind willreturn memory(argmem: read) uwtable
define noundef zeroext i1 @_ZNK10open_spiel10phantom_go14PhantomGoBoard11IsLegalMoveEtNS0_7GoColorE(ptr nocapture noundef nonnull readonly align 8 dereferenceable(8706) %0, i16 noundef zeroext %1, i8 noundef zeroext %2) local_unnamed_addr #5 align 2 {
  %4 = getelementptr inbounds nuw i8, ptr %0, i64 8696
  %5 = load i32, ptr %4, align 8
  switch i16 %1, label %6 [
    i16 442, label %_ZN10open_spiel10phantom_go24VirtualPointToBoardPointEti.exit
    i16 0, label %_ZN10open_spiel10phantom_go24VirtualPointToBoardPointEti.exit
  ]

6:                                                ; preds = %3
  %7 = udiv i16 %1, 21
  %.zext.i.i = zext nneg i16 %7 to i64
  %8 = urem i16 %1, 21
  %.zext16.i.i = zext nneg i16 %8 to i64
  %9 = add nuw nsw i64 %.zext.i.i, 4294967295
  %10 = shl nuw nsw i64 %.zext16.i.i, 32
  %.sroa.2.0.insert.ext.i8.i.i = add nsw i64 %10, -4294967296
  %.sroa.0.0.insert.ext.i10.i.i = and i64 %9, 4294967295
  %.sroa.0.0.insert.insert.i11.i.i = or disjoint i64 %.sroa.2.0.insert.ext.i8.i.i, %.sroa.0.0.insert.ext.i10.i.i
  br label %_ZN10open_spiel10phantom_go24VirtualPointToBoardPointEti.exit

_ZN10open_spiel10phantom_go24VirtualPointToBoardPointEti.exit: ; preds = %3, %3, %6
  %.sroa.0.0.i.i = phi i64 [ %.sroa.0.0.insert.insert.i11.i.i, %6 ], [ -1, %3 ], [ -1, %3 ]
  %11 = zext i8 %2 to i64
  %12 = getelementptr inbounds [2 x %"struct.std::array.4"], ptr %0, i64 0, i64 %11
  %.sroa.0.0.extract.trunc.i = trunc i64 %.sroa.0.0.i.i to i32
  %.sroa.2.0.extract.shift.i = lshr i64 %.sroa.0.0.i.i, 32
  %.sroa.2.0.extract.trunc.i = trunc nuw i64 %.sroa.2.0.extract.shift.i to i32
  %13 = mul nsw i32 %5, %.sroa.0.0.extract.trunc.i
  %14 = add nsw i32 %13, %.sroa.2.0.extract.trunc.i
  %15 = sext i32 %14 to i64
  %16 = getelementptr inbounds [361 x i8], ptr %12, i64 0, i64 %15
  %17 = load i8, ptr %16, align 1
  %18 = icmp eq i8 %17, 2
  ret i1 %18
}